
bin/application.elf:     file format elf32-avr


Disassembly of section .text:

00000000 <__vectors>:
   0:	0c 94 2a 00 	jmp	0x54	; 0x54 <__ctors_end>
   4:	0c 94 3f 00 	jmp	0x7e	; 0x7e <__bad_interrupt>
   8:	0c 94 3f 00 	jmp	0x7e	; 0x7e <__bad_interrupt>
   c:	0c 94 3f 00 	jmp	0x7e	; 0x7e <__bad_interrupt>
  10:	0c 94 3f 00 	jmp	0x7e	; 0x7e <__bad_interrupt>
  14:	0c 94 3f 00 	jmp	0x7e	; 0x7e <__bad_interrupt>
  18:	0c 94 3f 00 	jmp	0x7e	; 0x7e <__bad_interrupt>
  1c:	0c 94 3f 00 	jmp	0x7e	; 0x7e <__bad_interrupt>
  20:	0c 94 3f 00 	jmp	0x7e	; 0x7e <__bad_interrupt>
  24:	0c 94 3f 00 	jmp	0x7e	; 0x7e <__bad_interrupt>
  28:	0c 94 3f 00 	jmp	0x7e	; 0x7e <__bad_interrupt>
  2c:	0c 94 3f 00 	jmp	0x7e	; 0x7e <__bad_interrupt>
  30:	0c 94 3f 00 	jmp	0x7e	; 0x7e <__bad_interrupt>
  34:	0c 94 3f 00 	jmp	0x7e	; 0x7e <__bad_interrupt>
  38:	0c 94 3f 00 	jmp	0x7e	; 0x7e <__bad_interrupt>
  3c:	0c 94 3f 00 	jmp	0x7e	; 0x7e <__bad_interrupt>
  40:	0c 94 3f 00 	jmp	0x7e	; 0x7e <__bad_interrupt>
  44:	0c 94 3f 00 	jmp	0x7e	; 0x7e <__bad_interrupt>
  48:	0c 94 3f 00 	jmp	0x7e	; 0x7e <__bad_interrupt>
  4c:	0c 94 3f 00 	jmp	0x7e	; 0x7e <__bad_interrupt>
  50:	0c 94 3f 00 	jmp	0x7e	; 0x7e <__bad_interrupt>

00000054 <__ctors_end>:
  54:	11 24       	eor	r1, r1
  56:	1f be       	out	0x3f, r1	; 63
  58:	cf e5       	ldi	r28, 0x5F	; 95
  5a:	d8 e0       	ldi	r29, 0x08	; 8
  5c:	de bf       	out	0x3e, r29	; 62
  5e:	cd bf       	out	0x3d, r28	; 61

00000060 <__do_copy_data>:
  60:	10 e0       	ldi	r17, 0x00	; 0
  62:	a0 e6       	ldi	r26, 0x60	; 96
  64:	b0 e0       	ldi	r27, 0x00	; 0
  66:	e4 e4       	ldi	r30, 0x44	; 68
  68:	f2 e0       	ldi	r31, 0x02	; 2
  6a:	02 c0       	rjmp	.+4      	; 0x70 <__do_copy_data+0x10>
  6c:	05 90       	lpm	r0, Z+
  6e:	0d 92       	st	X+, r0
  70:	a8 37       	cpi	r26, 0x78	; 120
  72:	b1 07       	cpc	r27, r17
  74:	d9 f7       	brne	.-10     	; 0x6c <__do_copy_data+0xc>
  76:	0e 94 10 01 	call	0x220	; 0x220 <main>
  7a:	0c 94 20 01 	jmp	0x240	; 0x240 <_exit>

0000007e <__bad_interrupt>:
  7e:	0c 94 00 00 	jmp	0	; 0x0 <__vectors>

00000082 <Setup>:
  82:	62 e0       	ldi	r22, 0x02	; 2
  84:	81 e0       	ldi	r24, 0x01	; 1
  86:	0e 94 aa 00 	call	0x154	; 0x154 <PortMode>
  8a:	40 e0       	ldi	r20, 0x00	; 0
  8c:	61 e0       	ldi	r22, 0x01	; 1
  8e:	83 e0       	ldi	r24, 0x03	; 3
  90:	0c 94 7d 00 	jmp	0xfa	; 0xfa <PinMode>

00000094 <DicePattern>:
  94:	cf 93       	push	r28
  96:	c8 2f       	mov	r28, r24
  98:	41 e0       	ldi	r20, 0x01	; 1
  9a:	61 e0       	ldi	r22, 0x01	; 1
  9c:	80 fd       	sbrc	r24, 0
  9e:	15 c0       	rjmp	.+42     	; 0xca <DicePattern+0x36>
  a0:	81 11       	cpse	r24, r1
  a2:	0c c0       	rjmp	.+24     	; 0xbc <DicePattern+0x28>
  a4:	60 e0       	ldi	r22, 0x00	; 0
  a6:	81 e0       	ldi	r24, 0x01	; 1
  a8:	0e 94 e3 00 	call	0x1c6	; 0x1c6 <PortWrite>
  ac:	61 e0       	ldi	r22, 0x01	; 1
  ae:	83 e0       	ldi	r24, 0x03	; 3
  b0:	0e 94 f3 00 	call	0x1e6	; 0x1e6 <PinRead>
  b4:	81 11       	cpse	r24, r1
  b6:	fa cf       	rjmp	.-12     	; 0xac <DicePattern+0x18>
  b8:	cf 91       	pop	r28
  ba:	08 95       	ret
  bc:	40 e0       	ldi	r20, 0x00	; 0
  be:	61 e0       	ldi	r22, 0x01	; 1
  c0:	81 e0       	ldi	r24, 0x01	; 1
  c2:	0e 94 cb 00 	call	0x196	; 0x196 <PinWrite>
  c6:	41 e0       	ldi	r20, 0x01	; 1
  c8:	6c 2f       	mov	r22, r28
  ca:	81 e0       	ldi	r24, 0x01	; 1
  cc:	0e 94 cb 00 	call	0x196	; 0x196 <PinWrite>
  d0:	ed cf       	rjmp	.-38     	; 0xac <DicePattern+0x18>

000000d2 <Application>:
  d2:	80 e0       	ldi	r24, 0x00	; 0
  d4:	0e 94 4a 00 	call	0x94	; 0x94 <DicePattern>
  d8:	c0 e0       	ldi	r28, 0x00	; 0
  da:	d7 e0       	ldi	r29, 0x07	; 7
  dc:	61 e0       	ldi	r22, 0x01	; 1
  de:	83 e0       	ldi	r24, 0x03	; 3
  e0:	0e 94 f3 00 	call	0x1e6	; 0x1e6 <PinRead>
  e4:	88 23       	and	r24, r24
  e6:	d1 f3       	breq	.-12     	; 0xdc <Application+0xa>
  e8:	cf 5f       	subi	r28, 0xFF	; 255
  ea:	8c 2f       	mov	r24, r28
  ec:	6d 2f       	mov	r22, r29
  ee:	0e 94 14 01 	call	0x228	; 0x228 <__udivmodqi4>
  f2:	89 2f       	mov	r24, r25
  f4:	0e 94 4a 00 	call	0x94	; 0x94 <DicePattern>
  f8:	f1 cf       	rjmp	.-30     	; 0xdc <Application+0xa>

000000fa <PinMode>:
  fa:	cf 93       	push	r28
  fc:	df 93       	push	r29
  fe:	90 e0       	ldi	r25, 0x00	; 0
 100:	88 0f       	add	r24, r24
 102:	99 1f       	adc	r25, r25
 104:	fc 01       	movw	r30, r24
 106:	e8 59       	subi	r30, 0x98	; 152
 108:	ff 4f       	sbci	r31, 0xFF	; 255
 10a:	a0 81       	ld	r26, Z
 10c:	b1 81       	ldd	r27, Z+1	; 0x01
 10e:	21 e0       	ldi	r18, 0x01	; 1
 110:	30 e0       	ldi	r19, 0x00	; 0
 112:	01 c0       	rjmp	.+2      	; 0x116 <PinMode+0x1c>
 114:	22 0f       	add	r18, r18
 116:	6a 95       	dec	r22
 118:	ea f7       	brpl	.-6      	; 0x114 <PinMode+0x1a>
 11a:	80 59       	subi	r24, 0x90	; 144
 11c:	9f 4f       	sbci	r25, 0xFF	; 255
 11e:	ec 01       	movw	r28, r24
 120:	e8 81       	ld	r30, Y
 122:	f9 81       	ldd	r31, Y+1	; 0x01
 124:	82 2f       	mov	r24, r18
 126:	80 95       	com	r24
 128:	9c 91       	ld	r25, X
 12a:	41 30       	cpi	r20, 0x01	; 1
 12c:	41 f0       	breq	.+16     	; 0x13e <PinMode+0x44>
 12e:	42 30       	cpi	r20, 0x02	; 2
 130:	71 f4       	brne	.+28     	; 0x14e <PinMode+0x54>
 132:	29 2b       	or	r18, r25
 134:	2c 93       	st	X, r18
 136:	90 81       	ld	r25, Z
 138:	89 23       	and	r24, r25
 13a:	80 83       	st	Z, r24
 13c:	05 c0       	rjmp	.+10     	; 0x148 <PinMode+0x4e>
 13e:	89 23       	and	r24, r25
 140:	8c 93       	st	X, r24
 142:	80 81       	ld	r24, Z
 144:	28 2b       	or	r18, r24
 146:	20 83       	st	Z, r18
 148:	df 91       	pop	r29
 14a:	cf 91       	pop	r28
 14c:	08 95       	ret
 14e:	98 23       	and	r25, r24
 150:	9c 93       	st	X, r25
 152:	f1 cf       	rjmp	.-30     	; 0x136 <PinMode+0x3c>

00000154 <PortMode>:
 154:	cf 93       	push	r28
 156:	df 93       	push	r29
 158:	90 e0       	ldi	r25, 0x00	; 0
 15a:	88 0f       	add	r24, r24
 15c:	99 1f       	adc	r25, r25
 15e:	fc 01       	movw	r30, r24
 160:	e8 59       	subi	r30, 0x98	; 152
 162:	ff 4f       	sbci	r31, 0xFF	; 255
 164:	01 90       	ld	r0, Z+
 166:	f0 81       	ld	r31, Z
 168:	e0 2d       	mov	r30, r0
 16a:	80 59       	subi	r24, 0x90	; 144
 16c:	9f 4f       	sbci	r25, 0xFF	; 255
 16e:	ec 01       	movw	r28, r24
 170:	a8 81       	ld	r26, Y
 172:	b9 81       	ldd	r27, Y+1	; 0x01
 174:	61 30       	cpi	r22, 0x01	; 1
 176:	41 f0       	breq	.+16     	; 0x188 <PortMode+0x34>
 178:	62 30       	cpi	r22, 0x02	; 2
 17a:	51 f4       	brne	.+20     	; 0x190 <PortMode+0x3c>
 17c:	8f ef       	ldi	r24, 0xFF	; 255
 17e:	80 83       	st	Z, r24
 180:	1c 92       	st	X, r1
 182:	df 91       	pop	r29
 184:	cf 91       	pop	r28
 186:	08 95       	ret
 188:	10 82       	st	Z, r1
 18a:	8f ef       	ldi	r24, 0xFF	; 255
 18c:	8c 93       	st	X, r24
 18e:	f9 cf       	rjmp	.-14     	; 0x182 <PortMode+0x2e>
 190:	1c 92       	st	X, r1
 192:	10 82       	st	Z, r1
 194:	f6 cf       	rjmp	.-20     	; 0x182 <PortMode+0x2e>

00000196 <PinWrite>:
 196:	e8 2f       	mov	r30, r24
 198:	f0 e0       	ldi	r31, 0x00	; 0
 19a:	ee 0f       	add	r30, r30
 19c:	ff 1f       	adc	r31, r31
 19e:	e0 59       	subi	r30, 0x90	; 144
 1a0:	ff 4f       	sbci	r31, 0xFF	; 255
 1a2:	01 90       	ld	r0, Z+
 1a4:	f0 81       	ld	r31, Z
 1a6:	e0 2d       	mov	r30, r0
 1a8:	81 e0       	ldi	r24, 0x01	; 1
 1aa:	90 e0       	ldi	r25, 0x00	; 0
 1ac:	01 c0       	rjmp	.+2      	; 0x1b0 <PinWrite+0x1a>
 1ae:	88 0f       	add	r24, r24
 1b0:	6a 95       	dec	r22
 1b2:	ea f7       	brpl	.-6      	; 0x1ae <PinWrite+0x18>
 1b4:	90 81       	ld	r25, Z
 1b6:	41 30       	cpi	r20, 0x01	; 1
 1b8:	19 f4       	brne	.+6      	; 0x1c0 <PinWrite+0x2a>
 1ba:	89 2b       	or	r24, r25
 1bc:	80 83       	st	Z, r24
 1be:	08 95       	ret
 1c0:	80 95       	com	r24
 1c2:	89 23       	and	r24, r25
 1c4:	fb cf       	rjmp	.-10     	; 0x1bc <PinWrite+0x26>

000001c6 <PortWrite>:
 1c6:	e8 2f       	mov	r30, r24
 1c8:	f0 e0       	ldi	r31, 0x00	; 0
 1ca:	ee 0f       	add	r30, r30
 1cc:	ff 1f       	adc	r31, r31
 1ce:	e0 59       	subi	r30, 0x90	; 144
 1d0:	ff 4f       	sbci	r31, 0xFF	; 255
 1d2:	01 90       	ld	r0, Z+
 1d4:	f0 81       	ld	r31, Z
 1d6:	e0 2d       	mov	r30, r0
 1d8:	61 30       	cpi	r22, 0x01	; 1
 1da:	19 f4       	brne	.+6      	; 0x1e2 <PortWrite+0x1c>
 1dc:	8f ef       	ldi	r24, 0xFF	; 255
 1de:	80 83       	st	Z, r24
 1e0:	08 95       	ret
 1e2:	10 82       	st	Z, r1
 1e4:	08 95       	ret

000001e6 <PinRead>:
 1e6:	e8 2f       	mov	r30, r24
 1e8:	f0 e0       	ldi	r31, 0x00	; 0
 1ea:	ee 0f       	add	r30, r30
 1ec:	ff 1f       	adc	r31, r31
 1ee:	e0 5a       	subi	r30, 0xA0	; 160
 1f0:	ff 4f       	sbci	r31, 0xFF	; 255
 1f2:	01 90       	ld	r0, Z+
 1f4:	f0 81       	ld	r31, Z
 1f6:	e0 2d       	mov	r30, r0
 1f8:	80 81       	ld	r24, Z
 1fa:	90 e0       	ldi	r25, 0x00	; 0
 1fc:	02 c0       	rjmp	.+4      	; 0x202 <PinRead+0x1c>
 1fe:	95 95       	asr	r25
 200:	87 95       	ror	r24
 202:	6a 95       	dec	r22
 204:	e2 f7       	brpl	.-8      	; 0x1fe <PinRead+0x18>
 206:	81 70       	andi	r24, 0x01	; 1
 208:	08 95       	ret

0000020a <PortRead>:
 20a:	e8 2f       	mov	r30, r24
 20c:	f0 e0       	ldi	r31, 0x00	; 0
 20e:	ee 0f       	add	r30, r30
 210:	ff 1f       	adc	r31, r31
 212:	e0 5a       	subi	r30, 0xA0	; 160
 214:	ff 4f       	sbci	r31, 0xFF	; 255
 216:	01 90       	ld	r0, Z+
 218:	f0 81       	ld	r31, Z
 21a:	e0 2d       	mov	r30, r0
 21c:	80 81       	ld	r24, Z
 21e:	08 95       	ret

00000220 <main>:
 220:	0e 94 41 00 	call	0x82	; 0x82 <Setup>
 224:	0e 94 69 00 	call	0xd2	; 0xd2 <Application>

00000228 <__udivmodqi4>:
 228:	99 1b       	sub	r25, r25
 22a:	79 e0       	ldi	r23, 0x09	; 9
 22c:	04 c0       	rjmp	.+8      	; 0x236 <__udivmodqi4_ep>

0000022e <__udivmodqi4_loop>:
 22e:	99 1f       	adc	r25, r25
 230:	96 17       	cp	r25, r22
 232:	08 f0       	brcs	.+2      	; 0x236 <__udivmodqi4_ep>
 234:	96 1b       	sub	r25, r22

00000236 <__udivmodqi4_ep>:
 236:	88 1f       	adc	r24, r24
 238:	7a 95       	dec	r23
 23a:	c9 f7       	brne	.-14     	; 0x22e <__udivmodqi4_loop>
 23c:	80 95       	com	r24
 23e:	08 95       	ret

00000240 <_exit>:
 240:	f8 94       	cli

00000242 <__stop_program>:
 242:	ff cf       	rjmp	.-2      	; 0x242 <__stop_program>
